; Function Attrs: nounwind uwtable
define dso_local void @jq_util_input_set_parser(ptr noundef writeonly captures(none) initializes((16, 24), (56, 72)) %0, ptr noundef %1, i32 noundef %2) local_unnamed_addr #0 {
  %4 = getelementptr inbounds nuw i8, ptr %0, i64 16
  store ptr %1, ptr %4, align 8, !tbaa !19
  %5 = icmp eq ptr %1, null
  %6 = icmp ne i32 %2, 0
  %or.cond = and i1 %5, %6
  %7 = getelementptr inbounds nuw i8, ptr %0, i64 56
  br i1 %or.cond, label %8, label %12

8:                                                ; preds = %3
  %9 = tail call { i64, ptr } @jv_string(ptr noundef nonnull @.str.4) #13
  %10 = extractvalue { i64, ptr } %9, 0
  %11 = extractvalue { i64, ptr } %9, 1
  store i64 %10, ptr %7, align 8
  %.sroa.45.0..sroa_idx = getelementptr inbounds nuw i8, ptr %0, i64 64
  store ptr %11, ptr %.sroa.45.0..sroa_idx, align 8, !tbaa !4
  br label %21

12:                                               ; preds = %3
  %.sroa.43.0..sroa_idx = getelementptr inbounds nuw i8, ptr %0, i64 64
  br i1 %6, label %13, label %17

13:                                               ; preds = %12
  %14 = tail call { i64, ptr } @jv_array() #13
  %15 = extractvalue { i64, ptr } %14, 0
  %16 = extractvalue { i64, ptr } %14, 1
  store i64 %15, ptr %7, align 8
  store ptr %16, ptr %.sroa.43.0..sroa_idx, align 8, !tbaa !4
  br label %21

17:                                               ; preds = %12
  %18 = tail call { i64, ptr } @jv_invalid() #13
  %19 = extractvalue { i64, ptr } %18, 0
  %20 = extractvalue { i64, ptr } %18, 1
  store i64 %19, ptr %7, align 8
  store ptr %20, ptr %.sroa.43.0..sroa_idx, align 8, !tbaa !4
  br label %21

21:                                               ; preds = %13, %17, %8
  ret void
}